target datalayout = "e-m:e-p270:32:32-p271:32:32-p272:64:64-i64:64-i128:128-f80:128-n8:16:32:64-S128"
target triple = "x86_64-pc-linux-gnu"

%struct.Nwk_Grf_t_ = type { i32, i32, i32, ptr, ptr, i32, i32, ptr, ptr, [17 x i32], [17 x i32], ptr, ptr, ptr, i32, i32 }
%struct.Vec_Int_t_ = type { i32, i32, ptr }

; Function Attrs: inlinehint nounwind uwtable
define internal void @Vec_IntFree(ptr noundef %0) #4 {
  %2 = alloca ptr, align 8
  store ptr %0, ptr %2, align 8, !tbaa !25
  %3 = load ptr, ptr %2, align 8, !tbaa !25
  %4 = getelementptr inbounds nuw %struct.Vec_Int_t_, ptr %3, i32 0, i32 2
  %5 = load ptr, ptr %4, align 8, !tbaa !29
  %6 = icmp ne ptr %5, null
  br i1 %6, label %7, label %13

7:                                                ; preds = %1
  %8 = load ptr, ptr %2, align 8, !tbaa !25
  %9 = getelementptr inbounds nuw %struct.Vec_Int_t_, ptr %8, i32 0, i32 2
  %10 = load ptr, ptr %9, align 8, !tbaa !29
  call void @free(ptr noundef %10) #11
  %11 = load ptr, ptr %2, align 8, !tbaa !25
  %12 = getelementptr inbounds nuw %struct.Vec_Int_t_, ptr %11, i32 0, i32 2
  store ptr null, ptr %12, align 8, !tbaa !29
  br label %14

13:                                               ; preds = %1
  br label %14

14:                                               ; preds = %13, %7
  %15 = load ptr, ptr %2, align 8, !tbaa !25
  %16 = icmp ne ptr %15, null
  br i1 %16, label %17, label %19

17:                                               ; preds = %14
  %18 = load ptr, ptr %2, align 8, !tbaa !25
  call void @free(ptr noundef %18) #11
  store ptr null, ptr %2, align 8, !tbaa !25
  br label %20

19:                                               ; preds = %14
  br label %20

20:                                               ; preds = %19, %17
  ret void
}

; Function Attrs: nounwind uwtable
define void @Nwk_ManGraphFree(ptr noundef %0) #0 {
  %2 = alloca ptr, align 8
  store ptr %0, ptr %2, align 8, !tbaa !7
  %3 = load ptr, ptr %2, align 8, !tbaa !7
  %4 = getelementptr inbounds nuw %struct.Nwk_Grf_t_, ptr %3, i32 0, i32 11
  %5 = load ptr, ptr %4, align 8, !tbaa !21
  %6 = icmp ne ptr %5, null
  br i1 %6, label %7, label %11

7:                                                ; preds = %1
  %8 = load ptr, ptr %2, align 8, !tbaa !7
  %9 = getelementptr inbounds nuw %struct.Nwk_Grf_t_, ptr %8, i32 0, i32 11
  %10 = load ptr, ptr %9, align 8, !tbaa !21
  call void @Vec_IntFree(ptr noundef %10)
  br label %11

11:                                               ; preds = %7, %1
  %12 = load ptr, ptr %2, align 8, !tbaa !7
  %13 = getelementptr inbounds nuw %struct.Nwk_Grf_t_, ptr %12, i32 0, i32 4
  %14 = load ptr, ptr %13, align 8, !tbaa !20
  %15 = icmp ne ptr %14, null
  br i1 %15, label %16, label %20

16:                                               ; preds = %11
  %17 = load ptr, ptr %2, align 8, !tbaa !7
  %18 = getelementptr inbounds nuw %struct.Nwk_Grf_t_, ptr %17, i32 0, i32 4
  %19 = load ptr, ptr %18, align 8, !tbaa !20
  call void @Aig_MmFixedStop(ptr noundef %19, i32 noundef 0)
  br label %20

20:                                               ; preds = %16, %11
  %21 = load ptr, ptr %2, align 8, !tbaa !7
  %22 = getelementptr inbounds nuw %struct.Nwk_Grf_t_, ptr %21, i32 0, i32 8
  %23 = load ptr, ptr %22, align 8, !tbaa !30
  %24 = icmp ne ptr %23, null
  br i1 %24, label %25, label %29

25:                                               ; preds = %20
  %26 = load ptr, ptr %2, align 8, !tbaa !7
  %27 = getelementptr inbounds nuw %struct.Nwk_Grf_t_, ptr %26, i32 0, i32 8
  %28 = load ptr, ptr %27, align 8, !tbaa !30
  call void @Aig_MmFlexStop(ptr noundef %28, i32 noundef 0)
  br label %29

29:                                               ; preds = %25, %20
  %30 = load ptr, ptr %2, align 8, !tbaa !7
  %31 = getelementptr inbounds nuw %struct.Nwk_Grf_t_, ptr %30, i32 0, i32 7
  %32 = load ptr, ptr %31, align 8, !tbaa !31
  %33 = icmp ne ptr %32, null
  br i1 %33, label %34, label %40

34:                                               ; preds = %29
  %35 = load ptr, ptr %2, align 8, !tbaa !7
  %36 = getelementptr inbounds nuw %struct.Nwk_Grf_t_, ptr %35, i32 0, i32 7
  %37 = load ptr, ptr %36, align 8, !tbaa !31
  call void @free(ptr noundef %37) #11
  %38 = load ptr, ptr %2, align 8, !tbaa !7
  %39 = getelementptr inbounds nuw %struct.Nwk_Grf_t_, ptr %38, i32 0, i32 7
  store ptr null, ptr %39, align 8, !tbaa !31
  br label %41

40:                                               ; preds = %29
  br label %41

41:                                               ; preds = %40, %34
  %42 = load ptr, ptr %2, align 8, !tbaa !7
  %43 = getelementptr inbounds nuw %struct.Nwk_Grf_t_, ptr %42, i32 0, i32 3
  %44 = load ptr, ptr %43, align 8, !tbaa !19
  %45 = icmp ne ptr %44, null
  br i1 %45, label %46, label %52

46:                                               ; preds = %41
  %47 = load ptr, ptr %2, align 8, !tbaa !7
  %48 = getelementptr inbounds nuw %struct.Nwk_Grf_t_, ptr %47, i32 0, i32 3
  %49 = load ptr, ptr %48, align 8, !tbaa !19
  call void @free(ptr noundef %49) #11
  %50 = load ptr, ptr %2, align 8, !tbaa !7
  %51 = getelementptr inbounds nuw %struct.Nwk_Grf_t_, ptr %50, i32 0, i32 3
  store ptr null, ptr %51, align 8, !tbaa !19
  br label %53

52:                                               ; preds = %41
  br label %53

53:                                               ; preds = %52, %46
  %54 = load ptr, ptr %2, align 8, !tbaa !7
  %55 = getelementptr inbounds nuw %struct.Nwk_Grf_t_, ptr %54, i32 0, i32 12
  %56 = load ptr, ptr %55, align 8, !tbaa !32
  %57 = icmp ne ptr %56, null
  br i1 %57, label %58, label %64

58:                                               ; preds = %53
  %59 = load ptr, ptr %2, align 8, !tbaa !7
  %60 = getelementptr inbounds nuw %struct.Nwk_Grf_t_, ptr %59, i32 0, i32 12
  %61 = load ptr, ptr %60, align 8, !tbaa !32
  call void @free(ptr noundef %61) #11
  %62 = load ptr, ptr %2, align 8, !tbaa !7
  %63 = getelementptr inbounds nuw %struct.Nwk_Grf_t_, ptr %62, i32 0, i32 12
  store ptr null, ptr %63, align 8, !tbaa !32
  br label %65

64:                                               ; preds = %53
  br label %65

65:                                               ; preds = %64, %58
  %66 = load ptr, ptr %2, align 8, !tbaa !7
  %67 = getelementptr inbounds nuw %struct.Nwk_Grf_t_, ptr %66, i32 0, i32 13
  %68 = load ptr, ptr %67, align 8, !tbaa !33
  %69 = icmp ne ptr %68, null
  br i1 %69, label %70, label %76

70:                                               ; preds = %65
  %71 = load ptr, ptr %2, align 8, !tbaa !7
  %72 = getelementptr inbounds nuw %struct.Nwk_Grf_t_, ptr %71, i32 0, i32 13
  %73 = load ptr, ptr %72, align 8, !tbaa !33
  call void @free(ptr noundef %73) #11
  %74 = load ptr, ptr %2, align 8, !tbaa !7
  %75 = getelementptr inbounds nuw %struct.Nwk_Grf_t_, ptr %74, i32 0, i32 13
  store ptr null, ptr %75, align 8, !tbaa !33
  br label %77

76:                                               ; preds = %65
  br label %77

77:                                               ; preds = %76, %70
  %78 = load ptr, ptr %2, align 8, !tbaa !7
  %79 = icmp ne ptr %78, null
  br i1 %79, label %80, label %82

80:                                               ; preds = %77
  %81 = load ptr, ptr %2, align 8, !tbaa !7
  call void @free(ptr noundef %81) #11
  store ptr null, ptr %2, align 8, !tbaa !7
  br label %83

82:                                               ; preds = %77
  br label %83

83:                                               ; preds = %82, %80
  ret void
}