; Function Attrs: nounwind uwtable
define void @Nwk_ManGraphFree(ptr noundef captures(none) %0) local_unnamed_addr #0 {
  %2 = getelementptr inbounds nuw i8, ptr %0, i64 192
  %3 = load ptr, ptr %2, align 8, !tbaa !25
  %.not = icmp eq ptr %3, null
  br i1 %.not, label %8, label %4

4:                                                ; preds = %1
  %5 = getelementptr inbounds nuw i8, ptr %3, i64 8
  %6 = load ptr, ptr %5, align 8, !tbaa !24
  %.not.i = icmp eq ptr %6, null
  br i1 %.not.i, label %Vec_IntFree.exit, label %7

7:                                                ; preds = %4
  tail call void @free(ptr noundef nonnull %6) #20
  br label %Vec_IntFree.exit

Vec_IntFree.exit:                                 ; preds = %4, %7
  tail call void @free(ptr noundef nonnull %3) #20
  br label %8

8:                                                ; preds = %Vec_IntFree.exit, %1
  %9 = getelementptr inbounds nuw i8, ptr %0, i64 24
  %10 = load ptr, ptr %9, align 8, !tbaa !20
  %.not27 = icmp eq ptr %10, null
  br i1 %.not27, label %12, label %11

11:                                               ; preds = %8
  tail call void @Aig_MmFixedStop(ptr noundef nonnull %10, i32 noundef 0) #20
  br label %12

12:                                               ; preds = %11, %8
  %13 = getelementptr inbounds nuw i8, ptr %0, i64 48
  %14 = load ptr, ptr %13, align 8, !tbaa !26
  %.not28 = icmp eq ptr %14, null
  br i1 %.not28, label %16, label %15

15:                                               ; preds = %12
  tail call void @Aig_MmFlexStop(ptr noundef nonnull %14, i32 noundef 0) #20
  br label %16

16:                                               ; preds = %15, %12
  %17 = getelementptr inbounds nuw i8, ptr %0, i64 40
  %18 = load ptr, ptr %17, align 8, !tbaa !27
  %.not29 = icmp eq ptr %18, null
  br i1 %.not29, label %20, label %19

19:                                               ; preds = %16
  tail call void @free(ptr noundef nonnull %18) #20
  store ptr null, ptr %17, align 8, !tbaa !27
  br label %20

20:                                               ; preds = %16, %19
  %21 = getelementptr inbounds nuw i8, ptr %0, i64 16
  %22 = load ptr, ptr %21, align 8, !tbaa !19
  %.not30 = icmp eq ptr %22, null
  br i1 %.not30, label %24, label %23

23:                                               ; preds = %20
  tail call void @free(ptr noundef nonnull %22) #20
  store ptr null, ptr %21, align 8, !tbaa !19
  br label %24

24:                                               ; preds = %20, %23
  %25 = getelementptr inbounds nuw i8, ptr %0, i64 200
  %26 = load ptr, ptr %25, align 8, !tbaa !28
  %.not31 = icmp eq ptr %26, null
  br i1 %.not31, label %28, label %27

27:                                               ; preds = %24
  tail call void @free(ptr noundef nonnull %26) #20
  store ptr null, ptr %25, align 8, !tbaa !28
  br label %28

28:                                               ; preds = %24, %27
  %29 = getelementptr inbounds nuw i8, ptr %0, i64 208
  %30 = load ptr, ptr %29, align 8, !tbaa !29
  %.not32 = icmp eq ptr %30, null
  br i1 %.not32, label %32, label %31

31:                                               ; preds = %28
  tail call void @free(ptr noundef nonnull %30) #20
  br label %32

32:                                               ; preds = %28, %31
  tail call void @free(ptr noundef nonnull %0) #20
  ret void
}